; Function Attrs: nounwind uwtable
define internal fastcc void @Psr_ManWriteVerilogSignal(ptr noundef captures(none) %0, ptr noundef readonly captures(none) %1, i32 noundef %2) unnamed_addr #0 {
  %4 = ashr i32 %2, 2
  %5 = and i32 %2, 1
  %or.cond = icmp eq i32 %5, 0
  br i1 %or.cond, label %6, label %9

6:                                                ; preds = %3
  %7 = getelementptr i8, ptr %1, i64 8
  %.val = load ptr, ptr %7, align 8, !tbaa !13
  %8 = tail call ptr @Abc_NamStr(ptr noundef %.val, i32 noundef %4) #11
  %fputs = tail call i32 @fputs(ptr %8, ptr %0)
  br label %37

9:                                                ; preds = %3
  %10 = and i32 %2, 3
  switch i32 %10, label %37 [
    i32 1, label %11
    i32 3, label %23
  ]

11:                                               ; preds = %9
  %12 = getelementptr i8, ptr %1, i64 168
  %.val21 = load ptr, ptr %12, align 8, !tbaa !3
  %13 = sext i32 %4 to i64
  %14 = getelementptr inbounds i32, ptr %.val21, i64 %13
  %15 = load i32, ptr %14, align 4, !tbaa !10
  %16 = getelementptr i8, ptr %1, i64 8
  %.val19 = load ptr, ptr %16, align 8, !tbaa !13
  %17 = tail call ptr @Abc_NamStr(ptr noundef %.val19, i32 noundef %15) #11
  %.val22 = load ptr, ptr %12, align 8, !tbaa !3
  %18 = getelementptr i32, ptr %.val22, i64 %13
  %19 = getelementptr i8, ptr %18, i64 4
  %20 = load i32, ptr %19, align 4, !tbaa !10
  %.val20 = load ptr, ptr %16, align 8, !tbaa !13
  %21 = tail call ptr @Abc_NamStr(ptr noundef %.val20, i32 noundef %20) #11
  %22 = tail call i32 (ptr, ptr, ...) @fprintf(ptr noundef %0, ptr noundef nonnull @.str.32, ptr noundef %17, ptr noundef %21) #11
  br label %37

23:                                               ; preds = %9
  %24 = getelementptr i8, ptr %1, i64 184
  %.val.i = load ptr, ptr %24, align 8, !tbaa !3
  %25 = sext i32 %4 to i64
  %26 = getelementptr inbounds i32, ptr %.val.i, i64 %25
  %27 = load i32, ptr %26, align 4, !tbaa !10
  store i32 %27, ptr @Psr_CatSignals.V.1, align 4, !tbaa !16
  %28 = getelementptr i8, ptr %26, i64 4
  store ptr %28, ptr @Psr_CatSignals.V.2, align 8, !tbaa !3
  %fputc.i = tail call i32 @fputc(i32 123, ptr %0)
  %Psr_CatSignals.V.val.i = load i32, ptr @Psr_CatSignals.V.1, align 4, !tbaa !16
  %29 = icmp sgt i32 %Psr_CatSignals.V.val.i, 0
  br i1 %29, label %.lr.ph, label %Psr_ManWriteVerilogArray.exit

.lr.ph:                                           ; preds = %23
  %30 = add nsw i32 %Psr_CatSignals.V.val.i, -1
  %31 = zext nneg i32 %30 to i64
  %wide.trip.count = zext nneg i32 %Psr_CatSignals.V.val.i to i64
  br label %32

32:                                               ; preds = %.lr.ph, %32
  %indvars.iv = phi i64 [ 0, %.lr.ph ], [ %indvars.iv.next, %32 ]
  %.val.i23 = load ptr, ptr @Psr_CatSignals.V.2, align 8, !tbaa !3
  %33 = getelementptr inbounds nuw i32, ptr %.val.i23, i64 %indvars.iv
  %34 = load i32, ptr %33, align 4, !tbaa !10
  tail call fastcc void @Psr_ManWriteVerilogSignal(ptr noundef %0, ptr noundef %1, i32 noundef %34)
  %35 = icmp eq i64 %indvars.iv, %31
  %36 = select i1 %35, ptr @.str.1, ptr @.str.2
  %fputs.i = tail call i32 @fputs(ptr nonnull %36, ptr %0)
  %indvars.iv.next = add nuw nsw i64 %indvars.iv, 1
  %exitcond.not = icmp eq i64 %indvars.iv.next, %wide.trip.count
  br i1 %exitcond.not, label %Psr_ManWriteVerilogArray.exit, label %32, !llvm.loop !11

Psr_ManWriteVerilogArray.exit:                    ; preds = %32, %23
  %fputc7.i = tail call i32 @fputc(i32 125, ptr %0)
  br label %37

37:                                               ; preds = %9, %11, %Psr_ManWriteVerilogArray.exit, %6
  ret void
}